; ModuleID = '7/1055.c'
source_filename = "7/1055.c"
target datalayout = "e-m:e-p270:32:32-p271:32:32-p272:64:64-i64:64-f80:128-n8:16:32:64-S128"
target triple = "x86_64-pc-linux-gnu"

; Function Attrs: noinline nounwind uwtable
define dso_local i32 @main() #0 {
  %1 = alloca i32, align 4
  %2 = alloca i32, align 4
  %3 = alloca i32, align 4
  %4 = alloca i32, align 4
  %5 = alloca i32, align 4
  %6 = alloca i32, align 4
  %7 = alloca i32, align 4
  %8 = alloca [256 x i8], align 16
  %9 = alloca [256 x i8], align 16
  %10 = alloca [256 x i8], align 16
  %11 = alloca [256 x i8], align 16
  %12 = alloca [256 x i8], align 16
  store i32 0, i32* %1, align 4
  store i32 0, i32* %6, align 4
  %13 = getelementptr inbounds [256 x i8], [256 x i8]* %8, i64 0, i64 0
  %14 = call i32 (i8*, ...) bitcast (i32 (...)* @gets to i32 (i8*, ...)*)(i8* %13)
  %15 = getelementptr inbounds [256 x i8], [256 x i8]* %9, i64 0, i64 0
  %16 = call i32 (i8*, ...) bitcast (i32 (...)* @gets to i32 (i8*, ...)*)(i8* %15)
  %17 = getelementptr inbounds [256 x i8], [256 x i8]* %10, i64 0, i64 0
  %18 = call i32 (i8*, ...) bitcast (i32 (...)* @gets to i32 (i8*, ...)*)(i8* %17)
  %19 = getelementptr inbounds [256 x i8], [256 x i8]* %8, i64 0, i64 0
  %20 = call i64 @strlen(i8* %19) #3
  %21 = trunc i64 %20 to i32
  store i32 %21, i32* %2, align 4
  %22 = getelementptr inbounds [256 x i8], [256 x i8]* %9, i64 0, i64 0
  %23 = call i64 @strlen(i8* %22) #3
  %24 = trunc i64 %23 to i32
  store i32 %24, i32* %3, align 4
  store i32 0, i32* %4, align 4
  br label %25

25:                                               ; preds = %125, %0
  %26 = load i32, i32* %4, align 4
  %27 = load i32, i32* %2, align 4
  %28 = icmp slt i32 %26, %27
  br i1 %28, label %29, label %128

29:                                               ; preds = %25
  %30 = load i32, i32* %4, align 4
  %31 = sext i32 %30 to i64
  %32 = getelementptr inbounds [256 x i8], [256 x i8]* %8, i64 0, i64 %31
  %33 = load i8, i8* %32, align 1
  %34 = sext i8 %33 to i32
  %35 = getelementptr inbounds [256 x i8], [256 x i8]* %9, i64 0, i64 0
  %36 = load i8, i8* %35, align 16
  %37 = sext i8 %36 to i32
  %38 = icmp eq i32 %34, %37
  br i1 %38, label %39, label %124

39:                                               ; preds = %29
  store i32 0, i32* %5, align 4
  br label %40

40:                                               ; preds = %54, %39
  %41 = load i32, i32* %5, align 4
  %42 = load i32, i32* %3, align 4
  %43 = icmp slt i32 %41, %42
  br i1 %43, label %44, label %57

44:                                               ; preds = %40
  %45 = load i32, i32* %4, align 4
  %46 = load i32, i32* %5, align 4
  %47 = add nsw i32 %45, %46
  %48 = sext i32 %47 to i64
  %49 = getelementptr inbounds [256 x i8], [256 x i8]* %8, i64 0, i64 %48
  %50 = load i8, i8* %49, align 1
  %51 = load i32, i32* %5, align 4
  %52 = sext i32 %51 to i64
  %53 = getelementptr inbounds [256 x i8], [256 x i8]* %11, i64 0, i64 %52
  store i8 %50, i8* %53, align 1
  br label %54

54:                                               ; preds = %44
  %55 = load i32, i32* %5, align 4
  %56 = add nsw i32 %55, 1
  store i32 %56, i32* %5, align 4
  br label %40

57:                                               ; preds = %40
  %58 = getelementptr inbounds [256 x i8], [256 x i8]* %11, i64 0, i64 0
  %59 = getelementptr inbounds [256 x i8], [256 x i8]* %9, i64 0, i64 0
  %60 = call i32 @strcmp(i8* %58, i8* %59) #3
  %61 = icmp eq i32 %60, 0
  br i1 %61, label %62, label %119

62:                                               ; preds = %57
  store i32 1, i32* %6, align 4
  store i32 0, i32* %7, align 4
  br label %63

63:                                               ; preds = %75, %62
  %64 = load i32, i32* %7, align 4
  %65 = load i32, i32* %4, align 4
  %66 = icmp slt i32 %64, %65
  br i1 %66, label %67, label %78

67:                                               ; preds = %63
  %68 = load i32, i32* %7, align 4
  %69 = sext i32 %68 to i64
  %70 = getelementptr inbounds [256 x i8], [256 x i8]* %8, i64 0, i64 %69
  %71 = load i8, i8* %70, align 1
  %72 = load i32, i32* %7, align 4
  %73 = sext i32 %72 to i64
  %74 = getelementptr inbounds [256 x i8], [256 x i8]* %12, i64 0, i64 %73
  store i8 %71, i8* %74, align 1
  br label %75

75:                                               ; preds = %67
  %76 = load i32, i32* %7, align 4
  %77 = add nsw i32 %76, 1
  store i32 %77, i32* %7, align 4
  br label %63

78:                                               ; preds = %63
  %79 = load i32, i32* %4, align 4
  store i32 %79, i32* %7, align 4
  br label %80

80:                                               ; preds = %96, %78
  %81 = load i32, i32* %7, align 4
  %82 = load i32, i32* %4, align 4
  %83 = load i32, i32* %3, align 4
  %84 = add nsw i32 %82, %83
  %85 = icmp slt i32 %81, %84
  br i1 %85, label %86, label %99

86:                                               ; preds = %80
  %87 = load i32, i32* %7, align 4
  %88 = load i32, i32* %4, align 4
  %89 = sub nsw i32 %87, %88
  %90 = sext i32 %89 to i64
  %91 = getelementptr inbounds [256 x i8], [256 x i8]* %10, i64 0, i64 %90
  %92 = load i8, i8* %91, align 1
  %93 = load i32, i32* %7, align 4
  %94 = sext i32 %93 to i64
  %95 = getelementptr inbounds [256 x i8], [256 x i8]* %12, i64 0, i64 %94
  store i8 %92, i8* %95, align 1
  br label %96

96:                                               ; preds = %86
  %97 = load i32, i32* %7, align 4
  %98 = add nsw i32 %97, 1
  store i32 %98, i32* %7, align 4
  br label %80

99:                                               ; preds = %80
  %100 = load i32, i32* %4, align 4
  %101 = load i32, i32* %3, align 4
  %102 = add nsw i32 %100, %101
  store i32 %102, i32* %7, align 4
  br label %103

103:                                              ; preds = %115, %99
  %104 = load i32, i32* %7, align 4
  %105 = load i32, i32* %2, align 4
  %106 = icmp slt i32 %104, %105
  br i1 %106, label %107, label %118

107:                                              ; preds = %103
  %108 = load i32, i32* %7, align 4
  %109 = sext i32 %108 to i64
  %110 = getelementptr inbounds [256 x i8], [256 x i8]* %8, i64 0, i64 %109
  %111 = load i8, i8* %110, align 1
  %112 = load i32, i32* %7, align 4
  %113 = sext i32 %112 to i64
  %114 = getelementptr inbounds [256 x i8], [256 x i8]* %12, i64 0, i64 %113
  store i8 %111, i8* %114, align 1
  br label %115

115:                                              ; preds = %107
  %116 = load i32, i32* %7, align 4
  %117 = add nsw i32 %116, 1
  store i32 %117, i32* %7, align 4
  br label %103

118:                                              ; preds = %103
  br label %119

119:                                              ; preds = %118, %57
  %120 = load i32, i32* %6, align 4
  %121 = icmp eq i32 %120, 1
  br i1 %121, label %122, label %123

122:                                              ; preds = %119
  br label %128

123:                                              ; preds = %119
  br label %124

124:                                              ; preds = %123, %29
  br label %125

125:                                              ; preds = %124
  %126 = load i32, i32* %4, align 4
  %127 = add nsw i32 %126, 1
  store i32 %127, i32* %4, align 4
  br label %25

128:                                              ; preds = %122, %25
  %129 = load i32, i32* %6, align 4
  %130 = icmp eq i32 %129, 1
  br i1 %130, label %131, label %134

131:                                              ; preds = %128
  %132 = getelementptr inbounds [256 x i8], [256 x i8]* %12, i64 0, i64 0
  %133 = call i32 @puts(i8* %132)
  br label %137

134:                                              ; preds = %128
  %135 = getelementptr inbounds [256 x i8], [256 x i8]* %8, i64 0, i64 0
  %136 = call i32 @puts(i8* %135)
  br label %137

137:                                              ; preds = %134, %131
  %138 = load i32, i32* %1, align 4
  ret i32 %138
}

declare dso_local i32 @gets(...) #1

; Function Attrs: nounwind readonly
declare dso_local i64 @strlen(i8*) #2

; Function Attrs: nounwind readonly
declare dso_local i32 @strcmp(i8*, i8*) #2

declare dso_local i32 @puts(i8*) #1


!llvm.module.flags = !{!0}
!llvm.ident = !{!1}

!0 = !{i32 1, !"wchar_size", i32 4}
!1 = !{!"clang version 10.0.0-4ubuntu1 "}
